
_Send_Data:

;led18shift.c,27 :: 		void Send_Data(unsigned short rw){
;led18shift.c,30 :: 		for (num = 0; num < 4; num++) {
	CLRF        Send_Data_num_L0+0 
L_Send_Data0:
	MOVLW       4
	SUBWF       Send_Data_num_L0+0, 0 
	BTFSC       STATUS+0, 0 
	GOTO        L_Send_Data1
;led18shift.c,31 :: 		Mask = 0x01;
	MOVLW       1
	MOVWF       Send_Data_Mask_L0+0 
	MOVLW       0
	MOVWF       Send_Data_Mask_L0+1 
;led18shift.c,33 :: 		for (t=0; t<10; t++){              //each bit
	CLRF        Send_Data_t_L0+0 
L_Send_Data3:
	MOVLW       10
	SUBWF       Send_Data_t_L0+0, 0 
	BTFSC       STATUS+0, 0 
	GOTO        L_Send_Data4
;led18shift.c,35 :: 		Fflag = Buffer[rw][num] & Mask;
	MOVF        FARG_Send_Data_rw+0, 0 
	MOVWF       R0 
	MOVLW       0
	MOVWF       R1 
	MOVLW       10
	MOVWF       R4 
	MOVLW       0
	MOVWF       R5 
	CALL        _Mul_16x16_U+0, 0
	MOVLW       _Buffer+0
	ADDWF       R0, 0 
	MOVWF       R3 
	MOVLW       hi_addr(_Buffer+0)
	ADDWFC      R1, 0 
	MOVWF       R4 
	MOVF        Send_Data_num_L0+0, 0 
	MOVWF       R0 
	MOVLW       0
	MOVWF       R1 
	RLCF        R0, 1 
	BCF         R0, 0 
	RLCF        R1, 1 
	MOVF        R0, 0 
	ADDWF       R3, 0 
	MOVWF       FSR0L 
	MOVF        R1, 0 
	ADDWFC      R4, 0 
	MOVWF       FSR0H 
	MOVF        Send_Data_Mask_L0+0, 0 
	ANDWF       POSTINC0+0, 0 
	MOVWF       R1 
	MOVF        POSTINC0+0, 0 
	ANDWF       Send_Data_Mask_L0+1, 0 
	MOVWF       R2 
;led18shift.c,36 :: 		if(Fflag==0) PORTD.b0 = 0;
	MOVLW       0
	XORWF       R2, 0 
	BTFSS       STATUS+0, 2 
	GOTO        L__Send_Data82
	MOVLW       0
	XORWF       R1, 0 
L__Send_Data82:
	BTFSS       STATUS+0, 2 
	GOTO        L_Send_Data6
	BCF         PORTD+0, 0 
	GOTO        L_Send_Data7
L_Send_Data6:
;led18shift.c,37 :: 		else PORTD.b0 = 1;
	BSF         PORTD+0, 0 
L_Send_Data7:
;led18shift.c,39 :: 		PORTD.b1 = 1    ;    //to
	BSF         PORTD+0, 1 
;led18shift.c,40 :: 		PORTD.b1 = 0;
	BCF         PORTD+0, 1 
;led18shift.c,43 :: 		Mask = Mask << 1;
	RLCF        Send_Data_Mask_L0+0, 1 
	BCF         Send_Data_Mask_L0+0, 0 
	RLCF        Send_Data_Mask_L0+1, 1 
;led18shift.c,33 :: 		for (t=0; t<10; t++){              //each bit
	INCF        Send_Data_t_L0+0, 1 
;led18shift.c,44 :: 		}
	GOTO        L_Send_Data3
L_Send_Data4:
;led18shift.c,30 :: 		for (num = 0; num < 4; num++) {
	INCF        Send_Data_num_L0+0, 1 
;led18shift.c,45 :: 		}
	GOTO        L_Send_Data0
L_Send_Data1:
;led18shift.c,46 :: 		PORTD.b2 = 1    ;    //to
	BSF         PORTD+0, 2 
;led18shift.c,47 :: 		PORTD.b2 = 0;
	BCF         PORTD+0, 2 
;led18shift.c,48 :: 		}
	RETURN      0
; end of _Send_Data

_Delay_onesec:

;led18shift.c,142 :: 		void Delay_onesec(){
;led18shift.c,143 :: 		Delay_ms(1000);
	MOVLW       26
	MOVWF       R11, 0
	MOVLW       94
	MOVWF       R12, 0
	MOVLW       110
	MOVWF       R13, 0
L_Delay_onesec8:
	DECFSZ      R13, 1, 1
	BRA         L_Delay_onesec8
	DECFSZ      R12, 1, 1
	BRA         L_Delay_onesec8
	DECFSZ      R11, 1, 1
	BRA         L_Delay_onesec8
	NOP
;led18shift.c,144 :: 		}
	RETURN      0
; end of _Delay_onesec

_Find_StrLength:

;led18shift.c,145 :: 		unsigned short Find_StrLength(){
;led18shift.c,146 :: 		return strlen(message);
	MOVLW       _message+0
	MOVWF       FARG_strlen_s+0 
	MOVLW       hi_addr(_message+0)
	MOVWF       FARG_strlen_s+1 
	CALL        _strlen+0, 0
;led18shift.c,147 :: 		}
	RETURN      0
; end of _Find_StrLength

_Save_Message:

;led18shift.c,149 :: 		void Save_Message(){
;led18shift.c,151 :: 		EEPROM_Write(0x01, StringLength);
	MOVLW       1
	MOVWF       FARG_EEPROM_Write_address+0 
	MOVF        _StringLength+0, 0 
	MOVWF       FARG_EEPROM_Write_data_+0 
	CALL        _EEPROM_Write+0, 0
;led18shift.c,152 :: 		for(i=0; i<StringLength; i++){
	CLRF        _i+0 
L_Save_Message9:
	MOVF        _StringLength+0, 0 
	SUBWF       _i+0, 0 
	BTFSC       STATUS+0, 0 
	GOTO        L_Save_Message10
;led18shift.c,153 :: 		EEPROM_Write(i+2, message[i]);
	MOVLW       2
	ADDWF       _i+0, 0 
	MOVWF       FARG_EEPROM_Write_address+0 
	MOVLW       _message+0
	MOVWF       FSR0L 
	MOVLW       hi_addr(_message+0)
	MOVWF       FSR0H 
	MOVF        _i+0, 0 
	ADDWF       FSR0L, 1 
	BTFSC       STATUS+0, 0 
	INCF        FSR0H, 1 
	MOVF        POSTINC0+0, 0 
	MOVWF       FARG_EEPROM_Write_data_+0 
	CALL        _EEPROM_Write+0, 0
;led18shift.c,154 :: 		Delay_ms(20);
	MOVLW       130
	MOVWF       R12, 0
	MOVLW       221
	MOVWF       R13, 0
L_Save_Message12:
	DECFSZ      R13, 1, 1
	BRA         L_Save_Message12
	DECFSZ      R12, 1, 1
	BRA         L_Save_Message12
	NOP
	NOP
;led18shift.c,152 :: 		for(i=0; i<StringLength; i++){
	INCF        _i+0, 1 
;led18shift.c,155 :: 		}
	GOTO        L_Save_Message9
L_Save_Message10:
;led18shift.c,157 :: 		EEPROM_Write(i+2, 32);
	MOVLW       2
	ADDWF       _i+0, 0 
	MOVWF       FARG_EEPROM_Write_address+0 
	MOVLW       32
	MOVWF       FARG_EEPROM_Write_data_+0 
	CALL        _EEPROM_Write+0, 0
;led18shift.c,158 :: 		Delay_ms(5);
	MOVLW       33
	MOVWF       R12, 0
	MOVLW       118
	MOVWF       R13, 0
L_Save_Message13:
	DECFSZ      R13, 1, 1
	BRA         L_Save_Message13
	DECFSZ      R12, 1, 1
	BRA         L_Save_Message13
	NOP
;led18shift.c,159 :: 		EEPROM_Write(i+3, 32);
	MOVLW       3
	ADDWF       _i+0, 0 
	MOVWF       FARG_EEPROM_Write_address+0 
	MOVLW       32
	MOVWF       FARG_EEPROM_Write_data_+0 
	CALL        _EEPROM_Write+0, 0
;led18shift.c,160 :: 		Delay_ms(5);
	MOVLW       33
	MOVWF       R12, 0
	MOVLW       118
	MOVWF       R13, 0
L_Save_Message14:
	DECFSZ      R13, 1, 1
	BRA         L_Save_Message14
	DECFSZ      R12, 1, 1
	BRA         L_Save_Message14
	NOP
;led18shift.c,161 :: 		EEPROM_Write(i+4, 32);
	MOVLW       4
	ADDWF       _i+0, 0 
	MOVWF       FARG_EEPROM_Write_address+0 
	MOVLW       32
	MOVWF       FARG_EEPROM_Write_data_+0 
	CALL        _EEPROM_Write+0, 0
;led18shift.c,162 :: 		Delay_ms(5);
	MOVLW       33
	MOVWF       R12, 0
	MOVLW       118
	MOVWF       R13, 0
L_Save_Message15:
	DECFSZ      R13, 1, 1
	BRA         L_Save_Message15
	DECFSZ      R12, 1, 1
	BRA         L_Save_Message15
	NOP
;led18shift.c,163 :: 		EEPROM_Write(i+5, 32);
	MOVLW       5
	ADDWF       _i+0, 0 
	MOVWF       FARG_EEPROM_Write_address+0 
	MOVLW       32
	MOVWF       FARG_EEPROM_Write_data_+0 
	CALL        _EEPROM_Write+0, 0
;led18shift.c,164 :: 		Delay_ms(5);
	MOVLW       33
	MOVWF       R12, 0
	MOVLW       118
	MOVWF       R13, 0
L_Save_Message16:
	DECFSZ      R13, 1, 1
	BRA         L_Save_Message16
	DECFSZ      R12, 1, 1
	BRA         L_Save_Message16
	NOP
;led18shift.c,165 :: 		EEPROM_Write(i+6, 32);
	MOVLW       6
	ADDWF       _i+0, 0 
	MOVWF       FARG_EEPROM_Write_address+0 
	MOVLW       32
	MOVWF       FARG_EEPROM_Write_data_+0 
	CALL        _EEPROM_Write+0, 0
;led18shift.c,166 :: 		Delay_ms(5);
	MOVLW       33
	MOVWF       R12, 0
	MOVLW       118
	MOVWF       R13, 0
L_Save_Message17:
	DECFSZ      R13, 1, 1
	BRA         L_Save_Message17
	DECFSZ      R12, 1, 1
	BRA         L_Save_Message17
	NOP
;led18shift.c,167 :: 		EEPROM_Write(i+7, 32);
	MOVLW       7
	ADDWF       _i+0, 0 
	MOVWF       FARG_EEPROM_Write_address+0 
	MOVLW       32
	MOVWF       FARG_EEPROM_Write_data_+0 
	CALL        _EEPROM_Write+0, 0
;led18shift.c,168 :: 		Delay_ms(5);
	MOVLW       33
	MOVWF       R12, 0
	MOVLW       118
	MOVWF       R13, 0
L_Save_Message18:
	DECFSZ      R13, 1, 1
	BRA         L_Save_Message18
	DECFSZ      R12, 1, 1
	BRA         L_Save_Message18
	NOP
;led18shift.c,169 :: 		EEPROM_Write(i+8, 32);
	MOVLW       8
	ADDWF       _i+0, 0 
	MOVWF       FARG_EEPROM_Write_address+0 
	MOVLW       32
	MOVWF       FARG_EEPROM_Write_data_+0 
	CALL        _EEPROM_Write+0, 0
;led18shift.c,170 :: 		Delay_ms(5);
	MOVLW       33
	MOVWF       R12, 0
	MOVLW       118
	MOVWF       R13, 0
L_Save_Message19:
	DECFSZ      R13, 1, 1
	BRA         L_Save_Message19
	DECFSZ      R12, 1, 1
	BRA         L_Save_Message19
	NOP
;led18shift.c,172 :: 		}
	RETURN      0
; end of _Save_Message

_Load_Data:

;led18shift.c,174 :: 		void Load_Data(){
;led18shift.c,175 :: 		for (k=0; k<StringLength+7; k++){
	CLRF        _k+0 
L_Load_Data20:
	MOVLW       7
	ADDWF       _StringLength+0, 0 
	MOVWF       R1 
	CLRF        R2 
	MOVLW       0
	ADDWFC      R2, 1 
	MOVLW       128
	MOVWF       R0 
	MOVLW       128
	XORWF       R2, 0 
	SUBWF       R0, 0 
	BTFSS       STATUS+0, 2 
	GOTO        L__Load_Data83
	MOVF        R1, 0 
	SUBWF       _k+0, 0 
L__Load_Data83:
	BTFSC       STATUS+0, 0 
	GOTO        L_Load_Data21
;led18shift.c,176 :: 		message[k] = EEPROM_Read(k+2);
	MOVLW       _message+0
	MOVWF       FLOC__Load_Data+0 
	MOVLW       hi_addr(_message+0)
	MOVWF       FLOC__Load_Data+1 
	MOVF        _k+0, 0 
	ADDWF       FLOC__Load_Data+0, 1 
	BTFSC       STATUS+0, 0 
	INCF        FLOC__Load_Data+1, 1 
	MOVLW       2
	ADDWF       _k+0, 0 
	MOVWF       FARG_EEPROM_Read_address+0 
	CALL        _EEPROM_Read+0, 0
	MOVFF       FLOC__Load_Data+0, FSR1L
	MOVFF       FLOC__Load_Data+1, FSR1H
	MOVF        R0, 0 
	MOVWF       POSTINC1+0 
;led18shift.c,177 :: 		Delay_ms(20);
	MOVLW       130
	MOVWF       R12, 0
	MOVLW       221
	MOVWF       R13, 0
L_Load_Data23:
	DECFSZ      R13, 1, 1
	BRA         L_Load_Data23
	DECFSZ      R12, 1, 1
	BRA         L_Load_Data23
	NOP
	NOP
;led18shift.c,175 :: 		for (k=0; k<StringLength+7; k++){
	INCF        _k+0, 1 
;led18shift.c,178 :: 		}
	GOTO        L_Load_Data20
L_Load_Data21:
;led18shift.c,179 :: 		}
	RETURN      0
; end of _Load_Data

_keyboard:

;led18shift.c,180 :: 		void  keyboard(){
;led18shift.c,185 :: 		do{
L_keyboard24:
;led18shift.c,186 :: 		if(Ps2_Key_Read(&keydata, &special, &down)) {
	MOVLW       _keydata+0
	MOVWF       FARG_Ps2_Key_Read_value+0 
	MOVLW       hi_addr(_keydata+0)
	MOVWF       FARG_Ps2_Key_Read_value+1 
	MOVLW       _special+0
	MOVWF       FARG_Ps2_Key_Read_special+0 
	MOVLW       hi_addr(_special+0)
	MOVWF       FARG_Ps2_Key_Read_special+1 
	MOVLW       _down+0
	MOVWF       FARG_Ps2_Key_Read_pressed+0 
	MOVLW       hi_addr(_down+0)
	MOVWF       FARG_Ps2_Key_Read_pressed+1 
	CALL        _Ps2_Key_Read+0, 0
	MOVF        R0, 1 
	BTFSC       STATUS+0, 2 
	GOTO        L_keyboard27
;led18shift.c,188 :: 		if (down && (keydata == 13)) {
	MOVF        _down+0, 1 
	BTFSC       STATUS+0, 2 
	GOTO        L_keyboard30
	MOVF        _keydata+0, 0 
	XORLW       13
	BTFSS       STATUS+0, 2 
	GOTO        L_keyboard30
L__keyboard78:
;led18shift.c,189 :: 		StringLength = Find_StrLength();
	CALL        _Find_StrLength+0, 0
	MOVF        R0, 0 
	MOVWF       _StringLength+0 
;led18shift.c,190 :: 		Save_Message();
	CALL        _Save_Message+0, 0
;led18shift.c,192 :: 		key=0;
	CLRF        _key+0 
;led18shift.c,193 :: 		}
	GOTO        L_keyboard31
L_keyboard30:
;led18shift.c,195 :: 		else if (down && !special && keydata) {
	MOVF        _down+0, 1 
	BTFSC       STATUS+0, 2 
	GOTO        L_keyboard34
	MOVF        _special+0, 1 
	BTFSS       STATUS+0, 2 
	GOTO        L_keyboard34
	MOVF        _keydata+0, 1 
	BTFSC       STATUS+0, 2 
	GOTO        L_keyboard34
L__keyboard77:
;led18shift.c,196 :: 		message[key]=keydata;
	MOVLW       _message+0
	MOVWF       FSR1L 
	MOVLW       hi_addr(_message+0)
	MOVWF       FSR1H 
	MOVF        _key+0, 0 
	ADDWF       FSR1L, 1 
	BTFSC       STATUS+0, 0 
	INCF        FSR1H, 1 
	MOVF        _keydata+0, 0 
	MOVWF       POSTINC1+0 
;led18shift.c,198 :: 		key++;
	INCF        _key+0, 1 
;led18shift.c,199 :: 		}
L_keyboard34:
L_keyboard31:
;led18shift.c,200 :: 		}
L_keyboard27:
;led18shift.c,201 :: 		Delay_ms(1);
	MOVLW       7
	MOVWF       R12, 0
	MOVLW       125
	MOVWF       R13, 0
L_keyboard35:
	DECFSZ      R13, 1, 1
	BRA         L_keyboard35
	DECFSZ      R12, 1, 1
	BRA         L_keyboard35
;led18shift.c,203 :: 		while(keydata!=13 );             //key!=0 && down==0
	MOVF        _keydata+0, 0 
	XORLW       13
	BTFSS       STATUS+0, 2 
	GOTO        L_keyboard24
;led18shift.c,205 :: 		}
	RETURN      0
; end of _keyboard

_main:

;led18shift.c,206 :: 		void main() {
;led18shift.c,209 :: 		TRISD = 0x00;
	CLRF        TRISD+0 
;led18shift.c,213 :: 		TRISE = 0x00;
	CLRF        TRISE+0 
;led18shift.c,214 :: 		TRISB = 0x00;
	CLRF        TRISB+0 
;led18shift.c,217 :: 		ADCON0=0x00;
	CLRF        ADCON0+0 
;led18shift.c,218 :: 		PORTB=0x00;
	CLRF        PORTB+0 
;led18shift.c,219 :: 		PORTD=0x00;
	CLRF        PORTD+0 
;led18shift.c,220 :: 		PORTE=0x00;
	CLRF        PORTE+0 
;led18shift.c,223 :: 		Ps2_Config();                                         // Init PS/2 Keyboard
	CALL        _Ps2_Config+0, 0
;led18shift.c,224 :: 		Delay_ms(100);
	MOVLW       3
	MOVWF       R11, 0
	MOVLW       138
	MOVWF       R12, 0
	MOVLW       85
	MOVWF       R13, 0
L_main36:
	DECFSZ      R13, 1, 1
	BRA         L_main36
	DECFSZ      R12, 1, 1
	BRA         L_main36
	DECFSZ      R11, 1, 1
	BRA         L_main36
	NOP
	NOP
;led18shift.c,268 :: 		StringLength = EEPROM_Read(0x01);
	MOVLW       1
	MOVWF       FARG_EEPROM_Read_address+0 
	CALL        _EEPROM_Read+0, 0
	MOVF        R0, 0 
	MOVWF       _StringLength+0 
;led18shift.c,270 :: 		Load_Data();  // Read stored data and save into RAM
	CALL        _Load_Data+0, 0
;led18shift.c,272 :: 		do {
L_main37:
;led18shift.c,273 :: 		for (k=0; k<StringLength+7; k+=2){
	CLRF        _k+0 
L_main40:
	MOVLW       7
	ADDWF       _StringLength+0, 0 
	MOVWF       R1 
	CLRF        R2 
	MOVLW       0
	ADDWFC      R2, 1 
	MOVLW       128
	MOVWF       R0 
	MOVLW       128
	XORWF       R2, 0 
	SUBWF       R0, 0 
	BTFSS       STATUS+0, 2 
	GOTO        L__main84
	MOVF        R1, 0 
	SUBWF       _k+0, 0 
L__main84:
	BTFSC       STATUS+0, 0 
	GOTO        L_main41
;led18shift.c,274 :: 		for (scroll=0; scroll<(10/shift_step); scroll++) {
	CLRF        _scroll+0 
L_main43:
	MOVF        _shift_step+0, 0 
	MOVWF       R4 
	MOVLW       10
	MOVWF       R0 
	CALL        _Div_8x8_U+0, 0
	MOVF        R0, 0 
	SUBWF       _scroll+0, 0 
	BTFSC       STATUS+0, 0 
	GOTO        L_main44
;led18shift.c,275 :: 		for (row=0; row<7; row++){
	CLRF        _row+0 
L_main46:
	MOVLW       7
	SUBWF       _row+0, 0 
	BTFSC       STATUS+0, 0 
	GOTO        L_main47
;led18shift.c,276 :: 		if(Ps2_Key_Read(&keydata, &special, &down)) {
	MOVLW       _keydata+0
	MOVWF       FARG_Ps2_Key_Read_value+0 
	MOVLW       hi_addr(_keydata+0)
	MOVWF       FARG_Ps2_Key_Read_value+1 
	MOVLW       _special+0
	MOVWF       FARG_Ps2_Key_Read_special+0 
	MOVLW       hi_addr(_special+0)
	MOVWF       FARG_Ps2_Key_Read_special+1 
	MOVLW       _down+0
	MOVWF       FARG_Ps2_Key_Read_pressed+0 
	MOVLW       hi_addr(_down+0)
	MOVWF       FARG_Ps2_Key_Read_pressed+1 
	CALL        _Ps2_Key_Read+0, 0
	MOVF        R0, 1 
	BTFSC       STATUS+0, 2 
	GOTO        L_main49
;led18shift.c,277 :: 		if (down && (keydata == 34)) {
	MOVF        _down+0, 1 
	BTFSC       STATUS+0, 2 
	GOTO        L_main52
	MOVF        _keydata+0, 0 
	XORLW       34
	BTFSS       STATUS+0, 2 
	GOTO        L_main52
L__main81:
;led18shift.c,278 :: 		PORTB= 0;
	CLRF        PORTB+0 
;led18shift.c,280 :: 		do{
L_main53:
;led18shift.c,281 :: 		if(Ps2_Key_Read(&keydata, &special, &down)) {
	MOVLW       _keydata+0
	MOVWF       FARG_Ps2_Key_Read_value+0 
	MOVLW       hi_addr(_keydata+0)
	MOVWF       FARG_Ps2_Key_Read_value+1 
	MOVLW       _special+0
	MOVWF       FARG_Ps2_Key_Read_special+0 
	MOVLW       hi_addr(_special+0)
	MOVWF       FARG_Ps2_Key_Read_special+1 
	MOVLW       _down+0
	MOVWF       FARG_Ps2_Key_Read_pressed+0 
	MOVLW       hi_addr(_down+0)
	MOVWF       FARG_Ps2_Key_Read_pressed+1 
	CALL        _Ps2_Key_Read+0, 0
	MOVF        R0, 1 
	BTFSC       STATUS+0, 2 
	GOTO        L_main56
;led18shift.c,283 :: 		if (down && (keydata == 13)) {
	MOVF        _down+0, 1 
	BTFSC       STATUS+0, 2 
	GOTO        L_main59
	MOVF        _keydata+0, 0 
	XORLW       13
	BTFSS       STATUS+0, 2 
	GOTO        L_main59
L__main80:
;led18shift.c,284 :: 		StringLength = Find_StrLength();
	CALL        _Find_StrLength+0, 0
	MOVF        R0, 0 
	MOVWF       _StringLength+0 
;led18shift.c,285 :: 		Save_Message();
	CALL        _Save_Message+0, 0
;led18shift.c,287 :: 		key=0;
	CLRF        _key+0 
;led18shift.c,288 :: 		}
	GOTO        L_main60
L_main59:
;led18shift.c,290 :: 		else if (down && !special && keydata) {
	MOVF        _down+0, 1 
	BTFSC       STATUS+0, 2 
	GOTO        L_main63
	MOVF        _special+0, 1 
	BTFSS       STATUS+0, 2 
	GOTO        L_main63
	MOVF        _keydata+0, 1 
	BTFSC       STATUS+0, 2 
	GOTO        L_main63
L__main79:
;led18shift.c,291 :: 		message[key]=keydata;
	MOVLW       _message+0
	MOVWF       FSR1L 
	MOVLW       hi_addr(_message+0)
	MOVWF       FSR1H 
	MOVF        _key+0, 0 
	ADDWF       FSR1L, 1 
	BTFSC       STATUS+0, 0 
	INCF        FSR1H, 1 
	MOVF        _keydata+0, 0 
	MOVWF       POSTINC1+0 
;led18shift.c,293 :: 		key++;
	INCF        _key+0, 1 
;led18shift.c,294 :: 		}
L_main63:
L_main60:
;led18shift.c,295 :: 		}
L_main56:
;led18shift.c,296 :: 		Delay_ms(1);
	MOVLW       7
	MOVWF       R12, 0
	MOVLW       125
	MOVWF       R13, 0
L_main64:
	DECFSZ      R13, 1, 1
	BRA         L_main64
	DECFSZ      R12, 1, 1
	BRA         L_main64
;led18shift.c,298 :: 		while(keydata!=13 );             //key!=0 && down==0
	MOVF        _keydata+0, 0 
	XORLW       13
	BTFSS       STATUS+0, 2 
	GOTO        L_main53
;led18shift.c,299 :: 		StringLength = EEPROM_Read(0x01);
	MOVLW       1
	MOVWF       FARG_EEPROM_Read_address+0 
	CALL        _EEPROM_Read+0, 0
	MOVF        R0, 0 
	MOVWF       _StringLength+0 
;led18shift.c,300 :: 		Load_Data();
	CALL        _Load_Data+0, 0
;led18shift.c,301 :: 		k=0;
	CLRF        _k+0 
;led18shift.c,302 :: 		scroll=0;
	CLRF        _scroll+0 
;led18shift.c,303 :: 		row=0;
	CLRF        _row+0 
;led18shift.c,305 :: 		for(l=0; l<8; l++){
	CLRF        _l+0 
L_main65:
	MOVLW       8
	SUBWF       _l+0, 0 
	BTFSC       STATUS+0, 0 
	GOTO        L_main66
;led18shift.c,306 :: 		Buffer[l][4] =0;
	MOVF        _l+0, 0 
	MOVWF       R0 
	MOVLW       0
	MOVWF       R1 
	MOVLW       10
	MOVWF       R4 
	MOVLW       0
	MOVWF       R5 
	CALL        _Mul_16x16_U+0, 0
	MOVLW       _Buffer+0
	ADDWF       R0, 1 
	MOVLW       hi_addr(_Buffer+0)
	ADDWFC      R1, 1 
	MOVLW       8
	ADDWF       R0, 0 
	MOVWF       FSR1L 
	MOVLW       0
	ADDWFC      R1, 0 
	MOVWF       FSR1H 
	CLRF        POSTINC1+0 
	CLRF        POSTINC1+0 
;led18shift.c,307 :: 		Buffer[l][3] =0;
	MOVF        _l+0, 0 
	MOVWF       R0 
	MOVLW       0
	MOVWF       R1 
	MOVLW       10
	MOVWF       R4 
	MOVLW       0
	MOVWF       R5 
	CALL        _Mul_16x16_U+0, 0
	MOVLW       _Buffer+0
	ADDWF       R0, 1 
	MOVLW       hi_addr(_Buffer+0)
	ADDWFC      R1, 1 
	MOVLW       6
	ADDWF       R0, 0 
	MOVWF       FSR1L 
	MOVLW       0
	ADDWFC      R1, 0 
	MOVWF       FSR1H 
	CLRF        POSTINC1+0 
	CLRF        POSTINC1+0 
;led18shift.c,308 :: 		Buffer[l][2] =0;
	MOVF        _l+0, 0 
	MOVWF       R0 
	MOVLW       0
	MOVWF       R1 
	MOVLW       10
	MOVWF       R4 
	MOVLW       0
	MOVWF       R5 
	CALL        _Mul_16x16_U+0, 0
	MOVLW       _Buffer+0
	ADDWF       R0, 1 
	MOVLW       hi_addr(_Buffer+0)
	ADDWFC      R1, 1 
	MOVLW       4
	ADDWF       R0, 0 
	MOVWF       FSR1L 
	MOVLW       0
	ADDWFC      R1, 0 
	MOVWF       FSR1H 
	CLRF        POSTINC1+0 
	CLRF        POSTINC1+0 
;led18shift.c,309 :: 		Buffer[l][1] =0;
	MOVF        _l+0, 0 
	MOVWF       R0 
	MOVLW       0
	MOVWF       R1 
	MOVLW       10
	MOVWF       R4 
	MOVLW       0
	MOVWF       R5 
	CALL        _Mul_16x16_U+0, 0
	MOVLW       _Buffer+0
	ADDWF       R0, 1 
	MOVLW       hi_addr(_Buffer+0)
	ADDWFC      R1, 1 
	MOVLW       2
	ADDWF       R0, 0 
	MOVWF       FSR1L 
	MOVLW       0
	ADDWFC      R1, 0 
	MOVWF       FSR1H 
	CLRF        POSTINC1+0 
	CLRF        POSTINC1+0 
;led18shift.c,310 :: 		Buffer[l][0] =0;
	MOVF        _l+0, 0 
	MOVWF       R0 
	MOVLW       0
	MOVWF       R1 
	MOVLW       10
	MOVWF       R4 
	MOVLW       0
	MOVWF       R5 
	CALL        _Mul_16x16_U+0, 0
	MOVLW       _Buffer+0
	ADDWF       R0, 0 
	MOVWF       FSR1L 
	MOVLW       hi_addr(_Buffer+0)
	ADDWFC      R1, 0 
	MOVWF       FSR1H 
	CLRF        POSTINC1+0 
	CLRF        POSTINC1+0 
;led18shift.c,305 :: 		for(l=0; l<8; l++){
	INCF        _l+0, 1 
;led18shift.c,311 :: 		}
	GOTO        L_main65
L_main66:
;led18shift.c,312 :: 		}
L_main52:
;led18shift.c,313 :: 		}    //for ps2_read
L_main49:
;led18shift.c,344 :: 		index = message[k];
	MOVLW       _message+0
	MOVWF       FSR0L 
	MOVLW       hi_addr(_message+0)
	MOVWF       FSR0H 
	MOVF        _k+0, 0 
	ADDWF       FSR0L, 1 
	BTFSC       STATUS+0, 0 
	INCF        FSR0H, 1 
	MOVF        POSTINC0+0, 0 
	MOVWF       R2 
	MOVF        R2, 0 
	MOVWF       _index+0 
;led18shift.c,345 :: 		index2=  message[k+1];
	MOVF        _k+0, 0 
	ADDLW       1
	MOVWF       R0 
	CLRF        R1 
	MOVLW       0
	ADDWFC      R1, 1 
	MOVLW       _message+0
	ADDWF       R0, 0 
	MOVWF       FSR0L 
	MOVLW       hi_addr(_message+0)
	ADDWFC      R1, 0 
	MOVWF       FSR0H 
	MOVF        POSTINC0+0, 0 
	MOVWF       _index2+0 
;led18shift.c,346 :: 		temp = CharData[index-32][row];
	MOVLW       32
	SUBWF       R2, 0 
	MOVWF       R0 
	CLRF        R1 
	MOVLW       0
	SUBWFB      R1, 1 
	MOVLW       0
	BTFSC       R1, 7 
	MOVLW       255
	MOVWF       R2 
	MOVWF       R3 
	MOVLW       7
	MOVWF       R4 
	MOVLW       0
	MOVWF       R5 
	MOVWF       R6 
	MOVWF       R7 
	CALL        _Mul_32x32_U+0, 0
	MOVLW       _CharData+0
	ADDWF       R0, 1 
	MOVLW       hi_addr(_CharData+0)
	ADDWFC      R1, 1 
	MOVLW       higher_addr(_CharData+0)
	ADDWFC      R2, 1 
	MOVF        _row+0, 0 
	ADDWF       R0, 0 
	MOVWF       TBLPTRL 
	MOVLW       0
	ADDWFC      R1, 0 
	MOVWF       TBLPTRH 
	MOVLW       0
	ADDWFC      R2, 0 
	MOVWF       TBLPTRU 
	TBLRD*+
	MOVFF       TABLAT+0, _temp+0
;led18shift.c,347 :: 		temp2 = CharData[index2-32][row];
	MOVLW       32
	SUBWF       _index2+0, 0 
	MOVWF       R0 
	CLRF        R1 
	MOVLW       0
	SUBWFB      R1, 1 
	MOVLW       0
	BTFSC       R1, 7 
	MOVLW       255
	MOVWF       R2 
	MOVWF       R3 
	MOVLW       7
	MOVWF       R4 
	MOVLW       0
	MOVWF       R5 
	MOVWF       R6 
	MOVWF       R7 
	CALL        _Mul_32x32_U+0, 0
	MOVLW       _CharData+0
	ADDWF       R0, 1 
	MOVLW       hi_addr(_CharData+0)
	ADDWFC      R1, 1 
	MOVLW       higher_addr(_CharData+0)
	ADDWFC      R2, 1 
	MOVF        _row+0, 0 
	ADDWF       R0, 0 
	MOVWF       TBLPTRL 
	MOVLW       0
	ADDWFC      R1, 0 
	MOVWF       TBLPTRH 
	MOVLW       0
	ADDWFC      R2, 0 
	MOVWF       TBLPTRU 
	TBLRD*+
	MOVFF       TABLAT+0, _temp2+0
;led18shift.c,349 :: 		Buffer[row][3] = (Buffer[row][3] << Shift_Step) | (Buffer[row][2] >> (10-Shift_Step));
	MOVF        _row+0, 0 
	MOVWF       R0 
	MOVLW       0
	MOVWF       R1 
	MOVLW       10
	MOVWF       R4 
	MOVLW       0
	MOVWF       R5 
	CALL        _Mul_16x16_U+0, 0
	MOVLW       _Buffer+0
	ADDWF       R0, 0 
	MOVWF       R3 
	MOVLW       hi_addr(_Buffer+0)
	ADDWFC      R1, 0 
	MOVWF       R4 
	MOVLW       6
	ADDWF       R3, 0 
	MOVWF       FSR1L 
	MOVLW       0
	ADDWFC      R4, 0 
	MOVWF       FSR1H 
	MOVLW       6
	ADDWF       R3, 0 
	MOVWF       FSR0L 
	MOVLW       0
	ADDWFC      R4, 0 
	MOVWF       FSR0H 
	MOVF        POSTINC0+0, 0 
	MOVWF       R1 
	MOVF        POSTINC0+0, 0 
	MOVWF       R2 
	MOVF        _shift_step+0, 0 
	MOVWF       R0 
	MOVF        R1, 0 
	MOVWF       R5 
	MOVF        R2, 0 
	MOVWF       R6 
	MOVF        R0, 0 
L__main85:
	BZ          L__main86
	RLCF        R5, 1 
	BCF         R5, 0 
	RLCF        R6, 1 
	ADDLW       255
	GOTO        L__main85
L__main86:
	MOVLW       4
	ADDWF       R3, 0 
	MOVWF       FSR0L 
	MOVLW       0
	ADDWFC      R4, 0 
	MOVWF       FSR0H 
	MOVF        POSTINC0+0, 0 
	MOVWF       R3 
	MOVF        POSTINC0+0, 0 
	MOVWF       R4 
	MOVF        _shift_step+0, 0 
	SUBLW       10
	MOVWF       R0 
	CLRF        R1 
	MOVLW       0
	SUBWFB      R1, 1 
	MOVF        R0, 0 
	MOVWF       R2 
	MOVF        R3, 0 
	MOVWF       R0 
	MOVF        R4, 0 
	MOVWF       R1 
	MOVF        R2, 0 
L__main87:
	BZ          L__main88
	RRCF        R1, 1 
	RRCF        R0, 1 
	BCF         R1, 7 
	ADDLW       255
	GOTO        L__main87
L__main88:
	MOVF        R5, 0 
	IORWF       R0, 1 
	MOVF        R6, 0 
	IORWF       R1, 1 
	MOVF        R0, 0 
	MOVWF       POSTINC1+0 
	MOVF        R1, 0 
	MOVWF       POSTINC1+0 
;led18shift.c,350 :: 		Buffer[row][2] = (Buffer[row][2] << Shift_Step) | (Buffer[row][1] >> (10-Shift_Step));
	MOVF        _row+0, 0 
	MOVWF       R0 
	MOVLW       0
	MOVWF       R1 
	MOVLW       10
	MOVWF       R4 
	MOVLW       0
	MOVWF       R5 
	CALL        _Mul_16x16_U+0, 0
	MOVLW       _Buffer+0
	ADDWF       R0, 0 
	MOVWF       R3 
	MOVLW       hi_addr(_Buffer+0)
	ADDWFC      R1, 0 
	MOVWF       R4 
	MOVLW       4
	ADDWF       R3, 0 
	MOVWF       FSR1L 
	MOVLW       0
	ADDWFC      R4, 0 
	MOVWF       FSR1H 
	MOVLW       4
	ADDWF       R3, 0 
	MOVWF       FSR0L 
	MOVLW       0
	ADDWFC      R4, 0 
	MOVWF       FSR0H 
	MOVF        POSTINC0+0, 0 
	MOVWF       R1 
	MOVF        POSTINC0+0, 0 
	MOVWF       R2 
	MOVF        _shift_step+0, 0 
	MOVWF       R0 
	MOVF        R1, 0 
	MOVWF       R5 
	MOVF        R2, 0 
	MOVWF       R6 
	MOVF        R0, 0 
L__main89:
	BZ          L__main90
	RLCF        R5, 1 
	BCF         R5, 0 
	RLCF        R6, 1 
	ADDLW       255
	GOTO        L__main89
L__main90:
	MOVLW       2
	ADDWF       R3, 0 
	MOVWF       FSR0L 
	MOVLW       0
	ADDWFC      R4, 0 
	MOVWF       FSR0H 
	MOVF        POSTINC0+0, 0 
	MOVWF       R3 
	MOVF        POSTINC0+0, 0 
	MOVWF       R4 
	MOVF        _shift_step+0, 0 
	SUBLW       10
	MOVWF       R0 
	CLRF        R1 
	MOVLW       0
	SUBWFB      R1, 1 
	MOVF        R0, 0 
	MOVWF       R2 
	MOVF        R3, 0 
	MOVWF       R0 
	MOVF        R4, 0 
	MOVWF       R1 
	MOVF        R2, 0 
L__main91:
	BZ          L__main92
	RRCF        R1, 1 
	RRCF        R0, 1 
	BCF         R1, 7 
	ADDLW       255
	GOTO        L__main91
L__main92:
	MOVF        R5, 0 
	IORWF       R0, 1 
	MOVF        R6, 0 
	IORWF       R1, 1 
	MOVF        R0, 0 
	MOVWF       POSTINC1+0 
	MOVF        R1, 0 
	MOVWF       POSTINC1+0 
;led18shift.c,351 :: 		Buffer[row][1] = (Buffer[row][1] << Shift_Step) | (Buffer[row][0] >> (10-Shift_Step));
	MOVF        _row+0, 0 
	MOVWF       R0 
	MOVLW       0
	MOVWF       R1 
	MOVLW       10
	MOVWF       R4 
	MOVLW       0
	MOVWF       R5 
	CALL        _Mul_16x16_U+0, 0
	MOVLW       _Buffer+0
	ADDWF       R0, 0 
	MOVWF       R3 
	MOVLW       hi_addr(_Buffer+0)
	ADDWFC      R1, 0 
	MOVWF       R4 
	MOVLW       2
	ADDWF       R3, 0 
	MOVWF       FSR1L 
	MOVLW       0
	ADDWFC      R4, 0 
	MOVWF       FSR1H 
	MOVLW       2
	ADDWF       R3, 0 
	MOVWF       FSR0L 
	MOVLW       0
	ADDWFC      R4, 0 
	MOVWF       FSR0H 
	MOVF        POSTINC0+0, 0 
	MOVWF       R1 
	MOVF        POSTINC0+0, 0 
	MOVWF       R2 
	MOVF        _shift_step+0, 0 
	MOVWF       R0 
	MOVF        R1, 0 
	MOVWF       R5 
	MOVF        R2, 0 
	MOVWF       R6 
	MOVF        R0, 0 
L__main93:
	BZ          L__main94
	RLCF        R5, 1 
	BCF         R5, 0 
	RLCF        R6, 1 
	ADDLW       255
	GOTO        L__main93
L__main94:
	MOVFF       R3, FSR0L
	MOVFF       R4, FSR0H
	MOVF        POSTINC0+0, 0 
	MOVWF       R3 
	MOVF        POSTINC0+0, 0 
	MOVWF       R4 
	MOVF        _shift_step+0, 0 
	SUBLW       10
	MOVWF       R0 
	CLRF        R1 
	MOVLW       0
	SUBWFB      R1, 1 
	MOVF        R0, 0 
	MOVWF       R2 
	MOVF        R3, 0 
	MOVWF       R0 
	MOVF        R4, 0 
	MOVWF       R1 
	MOVF        R2, 0 
L__main95:
	BZ          L__main96
	RRCF        R1, 1 
	RRCF        R0, 1 
	BCF         R1, 7 
	ADDLW       255
	GOTO        L__main95
L__main96:
	MOVF        R5, 0 
	IORWF       R0, 1 
	MOVF        R6, 0 
	IORWF       R1, 1 
	MOVF        R0, 0 
	MOVWF       POSTINC1+0 
	MOVF        R1, 0 
	MOVWF       POSTINC1+0 
;led18shift.c,354 :: 		if(scroll<5)
	MOVLW       5
	SUBWF       _scroll+0, 0 
	BTFSC       STATUS+0, 0 
	GOTO        L_main68
;led18shift.c,356 :: 		Buffer[row][0] = (Buffer[row][0] << Shift_Step)| (temp >> ((5-shift_step)-scroll*shift_step));
	MOVF        _row+0, 0 
	MOVWF       R0 
	MOVLW       0
	MOVWF       R1 
	MOVLW       10
	MOVWF       R4 
	MOVLW       0
	MOVWF       R5 
	CALL        _Mul_16x16_U+0, 0
	MOVLW       _Buffer+0
	ADDWF       R0, 1 
	MOVLW       hi_addr(_Buffer+0)
	ADDWFC      R1, 1 
	MOVF        R0, 0 
	MOVWF       FSR1L 
	MOVF        R1, 0 
	MOVWF       FSR1H 
	MOVFF       R0, FSR0L
	MOVFF       R1, FSR0H
	MOVF        POSTINC0+0, 0 
	MOVWF       R2 
	MOVF        POSTINC0+0, 0 
	MOVWF       R3 
	MOVF        _shift_step+0, 0 
	MOVWF       R0 
	MOVF        R2, 0 
	MOVWF       R4 
	MOVF        R3, 0 
	MOVWF       R5 
	MOVF        R0, 0 
L__main97:
	BZ          L__main98
	RLCF        R4, 1 
	BCF         R4, 0 
	RLCF        R5, 1 
	ADDLW       255
	GOTO        L__main97
L__main98:
	MOVF        _shift_step+0, 0 
	SUBLW       5
	MOVWF       R2 
	CLRF        R3 
	MOVLW       0
	SUBWFB      R3, 1 
	MOVF        _scroll+0, 0 
	MULWF       _shift_step+0 
	MOVF        PRODL+0, 0 
	MOVWF       R0 
	MOVF        PRODH+0, 0 
	MOVWF       R1 
	MOVF        R0, 0 
	SUBWF       R2, 0 
	MOVWF       R0 
	MOVF        R1, 0 
	SUBWFB      R3, 0 
	MOVWF       R1 
	MOVF        R0, 0 
	MOVWF       R1 
	MOVF        _temp+0, 0 
	MOVWF       R0 
	MOVF        R1, 0 
L__main99:
	BZ          L__main100
	RRCF        R0, 1 
	BCF         R0, 7 
	ADDLW       255
	GOTO        L__main99
L__main100:
	MOVLW       0
	MOVWF       R1 
	MOVF        R4, 0 
	IORWF       R0, 1 
	MOVF        R5, 0 
	IORWF       R1, 1 
	MOVF        R0, 0 
	MOVWF       POSTINC1+0 
	MOVF        R1, 0 
	MOVWF       POSTINC1+0 
	GOTO        L_main69
L_main68:
;led18shift.c,358 :: 		Buffer[row][0] = (Buffer[row][0] << Shift_Step)| (temp2 >> 9-scroll);
	MOVF        _row+0, 0 
	MOVWF       R0 
	MOVLW       0
	MOVWF       R1 
	MOVLW       10
	MOVWF       R4 
	MOVLW       0
	MOVWF       R5 
	CALL        _Mul_16x16_U+0, 0
	MOVLW       _Buffer+0
	ADDWF       R0, 0 
	MOVWF       R5 
	MOVLW       hi_addr(_Buffer+0)
	ADDWFC      R1, 0 
	MOVWF       R6 
	MOVFF       R5, FSR0L
	MOVFF       R6, FSR0H
	MOVF        POSTINC0+0, 0 
	MOVWF       R1 
	MOVF        POSTINC0+0, 0 
	MOVWF       R2 
	MOVF        _shift_step+0, 0 
	MOVWF       R0 
	MOVF        R1, 0 
	MOVWF       R3 
	MOVF        R2, 0 
	MOVWF       R4 
	MOVF        R0, 0 
L__main101:
	BZ          L__main102
	RLCF        R3, 1 
	BCF         R3, 0 
	RLCF        R4, 1 
	ADDLW       255
	GOTO        L__main101
L__main102:
	MOVF        _scroll+0, 0 
	SUBLW       9
	MOVWF       R0 
	CLRF        R1 
	MOVLW       0
	SUBWFB      R1, 1 
	MOVF        R0, 0 
	MOVWF       R1 
	MOVF        _temp2+0, 0 
	MOVWF       R0 
	MOVF        R1, 0 
L__main103:
	BZ          L__main104
	RRCF        R0, 1 
	BCF         R0, 7 
	ADDLW       255
	GOTO        L__main103
L__main104:
	MOVLW       0
	MOVWF       R1 
	MOVF        R3, 0 
	IORWF       R0, 1 
	MOVF        R4, 0 
	IORWF       R1, 1 
	MOVFF       R5, FSR1L
	MOVFF       R6, FSR1H
	MOVF        R0, 0 
	MOVWF       POSTINC1+0 
	MOVF        R1, 0 
	MOVWF       POSTINC1+0 
L_main69:
;led18shift.c,275 :: 		for (row=0; row<7; row++){
	INCF        _row+0, 1 
;led18shift.c,361 :: 		}
	GOTO        L_main46
L_main47:
;led18shift.c,362 :: 		speed = 5;
	MOVLW       5
	MOVWF       _speed+0 
;led18shift.c,363 :: 		for(l=0; l<speed;l++){
	CLRF        _l+0 
L_main70:
	MOVF        _speed+0, 0 
	SUBWF       _l+0, 0 
	BTFSC       STATUS+0, 0 
	GOTO        L_main71
;led18shift.c,364 :: 		m = 1;
	MOVLW       1
	MOVWF       _m+0 
;led18shift.c,365 :: 		for (i=0; i<7; i++) {    //each row
	CLRF        _i+0 
L_main73:
	MOVLW       7
	SUBWF       _i+0, 0 
	BTFSC       STATUS+0, 0 
	GOTO        L_main74
;led18shift.c,367 :: 		Send_Data(i);
	MOVF        _i+0, 0 
	MOVWF       FARG_Send_Data_rw+0 
	CALL        _Send_Data+0, 0
;led18shift.c,368 :: 		PORTB= m;        //chage this
	MOVF        _m+0, 0 
	MOVWF       PORTB+0 
;led18shift.c,370 :: 		m = m << 1;
	RLCF        _m+0, 1 
	BCF         _m+0, 0 
;led18shift.c,371 :: 		Delay_us(1000);
	MOVLW       7
	MOVWF       R12, 0
	MOVLW       125
	MOVWF       R13, 0
L_main76:
	DECFSZ      R13, 1, 1
	BRA         L_main76
	DECFSZ      R12, 1, 1
	BRA         L_main76
;led18shift.c,365 :: 		for (i=0; i<7; i++) {    //each row
	INCF        _i+0, 1 
;led18shift.c,372 :: 		}  // i
	GOTO        L_main73
L_main74:
;led18shift.c,363 :: 		for(l=0; l<speed;l++){
	INCF        _l+0, 1 
;led18shift.c,373 :: 		} // l
	GOTO        L_main70
L_main71:
;led18shift.c,274 :: 		for (scroll=0; scroll<(10/shift_step); scroll++) {
	INCF        _scroll+0, 1 
;led18shift.c,374 :: 		} // scroll
	GOTO        L_main43
L_main44:
;led18shift.c,273 :: 		for (k=0; k<StringLength+7; k+=2){
	MOVLW       2
	ADDWF       _k+0, 1 
;led18shift.c,375 :: 		} // k
	GOTO        L_main40
L_main41:
;led18shift.c,377 :: 		} while(1);
	GOTO        L_main37
;led18shift.c,378 :: 		}
	GOTO        $+0
; end of _main
